target datalayout = "e-m:e-p270:32:32-p271:32:32-p272:64:64-i64:64-i128:128-f80:128-n8:16:32:64-S128"
target triple = "x86_64-pc-linux-gnu"

@hf_unknown_subtype = internal global i32 0, align 4
@hf_unknown_subtype_content = internal global i32 0, align 4

; Function Attrs: null_pointer_is_valid sspstrong uwtable
define internal void @dissect_oui_default_tlv(ptr noundef %0, ptr noundef %1, ptr noundef %2) #0 {
  %4 = alloca ptr, align 8
  %5 = alloca ptr, align 8
  %6 = alloca ptr, align 8
  store ptr %0, ptr %4, align 8
  store ptr %1, ptr %5, align 8
  store ptr %2, ptr %6, align 8
  %7 = load ptr, ptr %6, align 8
  %8 = load i32, ptr @hf_unknown_subtype, align 4
  %9 = load ptr, ptr %4, align 8
  %10 = call ptr @proto_tree_add_item(ptr noundef %7, i32 noundef %8, ptr noundef %9, i32 noundef 0, i32 noundef 1, i32 noundef 0)
  %11 = load ptr, ptr %4, align 8
  %12 = call i32 @tvb_captured_length_remaining(ptr noundef %11, i32 noundef 1)
  %13 = icmp sgt i32 %12, 0
  br i1 %13, label %14, label %19

14:                                               ; preds = %3
  %15 = load ptr, ptr %6, align 8
  %16 = load i32, ptr @hf_unknown_subtype_content, align 4
  %17 = load ptr, ptr %4, align 8
  %18 = call ptr @proto_tree_add_item(ptr noundef %15, i32 noundef %16, ptr noundef %17, i32 noundef 1, i32 noundef -1, i32 noundef 0)
  br label %19

19:                                               ; preds = %14, %3
  ret void
}