; Function Attrs: null_pointer_is_valid sspstrong uwtable
define internal fastcc void @dissect_oui_default_tlv(ptr noundef %0, ptr noundef %1) unnamed_addr #0 {
  %3 = load i32, ptr @hf_unknown_subtype, align 4
  %4 = tail call ptr @proto_tree_add_item(ptr noundef %1, i32 noundef %3, ptr noundef %0, i32 noundef 0, i32 noundef 1, i32 noundef 0)
  %5 = tail call i32 @tvb_captured_length_remaining(ptr noundef %0, i32 noundef 1)
  %6 = icmp sgt i32 %5, 0
  br i1 %6, label %7, label %10

7:                                                ; preds = %2
  %8 = load i32, ptr @hf_unknown_subtype_content, align 4
  %9 = tail call ptr @proto_tree_add_item(ptr noundef %1, i32 noundef %8, ptr noundef %0, i32 noundef 1, i32 noundef -1, i32 noundef 0)
  br label %10

10:                                               ; preds = %7, %2
  ret void
}